target datalayout = "e-m:e-p270:32:32-p271:32:32-p272:64:64-i64:64-i128:128-f80:128-n8:16:32:64-S128"
target triple = "x86_64-unknown-linux-gnu"

%struct.BdrvChild = type { ptr, ptr, ptr, i32, ptr, i64, i64, i8, i8, %struct.anon, %struct.anon.0 }
%struct.anon = type { ptr, ptr }
%struct.anon.0 = type { ptr, ptr }
%struct.BlockLimits = type { i32, i64, i32, i64, i32, i32, i32, i64, i32, i64, i64, i32, i8, i32, i32, i32, i32, i32, i32, i32 }
%struct.BlockDriverState = type { i32, i8, i8, i8, i8, i8, ptr, ptr, ptr, %struct.anon.1, i8, [4096 x i8], [4096 x i8], [4096 x i8], [16 x i8], ptr, [4096 x i8], %struct.BlockLimits, i32, i32, i32, i32, [32 x i8], %union.anon, %union.anon.2, %union.anon.3, i32, [16 x %struct.anon.4], ptr, %struct.anon.5, ptr, ptr, %struct.anon.6, ptr, ptr, i32, ptr, i64, i64, %struct.QemuMutex, %struct.anon.7, %struct.Stat64, i32, i32, i32, i32, i32, i32, %struct.QemuMutex, %struct.anon.8, %struct.CoQueue, i8, i32, i8, %struct.CoMutex, ptr, ptr }
%struct.anon.1 = type { ptr }
%union.anon = type { %struct.QTailQLink }
%struct.QTailQLink = type { ptr, ptr }
%union.anon.2 = type { %struct.QTailQLink }
%union.anon.3 = type { %struct.QTailQLink }
%struct.anon.4 = type { ptr }
%struct.anon.5 = type { ptr }
%struct.anon.6 = type { ptr }
%struct.anon.7 = type { ptr }
%struct.Stat64 = type { i64 }
%struct.QemuMutex = type { %union.pthread_mutex_t, i8 }
%union.pthread_mutex_t = type { %struct.__pthread_mutex_s }
%struct.__pthread_mutex_s = type { i32, i32, i32, i32, i32, i16, i16, %struct.__pthread_internal_list }
%struct.__pthread_internal_list = type { ptr, ptr }
%struct.anon.8 = type { ptr }
%struct.CoQueue = type { %struct.anon.9 }
%struct.anon.9 = type { ptr, ptr }
%struct.CoMutex = type { i32, ptr, %struct.anon.10, %struct.anon.10, i32, i32, ptr }
%struct.anon.10 = type { ptr }
%struct.timeval = type { i64, i64 }

@trace_events_enabled_count = external global i32, align 4
@message_with_timestamp = external global i8, align 1
@qemu_loglevel = external global i32, align 4
@_TRACE_BDRV_CO_PWRITE_ZEROES_DSTATE = external global i16, align 2
@.str.80 = private unnamed_addr constant [74 x i8] c"%d@%zu.%06zu:bdrv_co_pwrite_zeroes bs %p offset %ld bytes %ld flags 0x%x\0A\00", align 1
@.str.81 = private unnamed_addr constant [61 x i8] c"bdrv_co_pwrite_zeroes bs %p offset %ld bytes %ld flags 0x%x\0A\00", align 1

; Function Attrs: nounwind sspstrong uwtable
define internal zeroext i1 @qemu_loglevel_mask(i32 noundef %mask) #0 {
entry:
  %mask.addr = alloca i32, align 4
  store i32 %mask, ptr %mask.addr, align 4
  %0 = load i32, ptr @qemu_loglevel, align 4
  %1 = load i32, ptr %mask.addr, align 4
  %and = and i32 %0, %1
  %cmp = icmp ne i32 %and, 0
  ret i1 %cmp
}

; Function Attrs: nounwind sspstrong uwtable
define internal void @_nocheck__trace_bdrv_co_pwrite_zeroes(ptr noundef %bs, i64 noundef %offset, i64 noundef %bytes, i32 noundef %flags) #0 {
entry:
  %bs.addr = alloca ptr, align 8
  %offset.addr = alloca i64, align 8
  %bytes.addr = alloca i64, align 8
  %flags.addr = alloca i32, align 4
  %_now = alloca %struct.timeval, align 8
  store ptr %bs, ptr %bs.addr, align 8
  store i64 %offset, ptr %offset.addr, align 8
  store i64 %bytes, ptr %bytes.addr, align 8
  store i32 %flags, ptr %flags.addr, align 4
  %0 = load i32, ptr @trace_events_enabled_count, align 4
  %tobool = icmp ne i32 %0, 0
  %lnot = xor i1 %tobool, true
  %lnot1 = xor i1 %lnot, true
  %lnot.ext = zext i1 %lnot1 to i32
  %conv = sext i32 %lnot.ext to i64
  %tobool2 = icmp ne i64 %conv, 0
  br i1 %tobool2, label %land.lhs.true, label %if.end11

land.lhs.true:                                    ; preds = %entry
  %1 = load i16, ptr @_TRACE_BDRV_CO_PWRITE_ZEROES_DSTATE, align 2
  %conv3 = zext i16 %1 to i32
  %tobool4 = icmp ne i32 %conv3, 0
  br i1 %tobool4, label %land.lhs.true5, label %if.end11

land.lhs.true5:                                   ; preds = %land.lhs.true
  %call = call zeroext i1 @qemu_loglevel_mask(i32 noundef 32768)
  br i1 %call, label %if.then, label %if.end11

if.then:                                          ; preds = %land.lhs.true5
  %2 = load i8, ptr @message_with_timestamp, align 1
  %tobool7 = trunc i8 %2 to i1
  br i1 %tobool7, label %if.then8, label %if.else

if.then8:                                         ; preds = %if.then
  %call9 = call i32 @gettimeofday(ptr noundef %_now, ptr noundef null) #14
  %call10 = call i32 @qemu_get_thread_id()
  %tv_sec = getelementptr inbounds %struct.timeval, ptr %_now, i32 0, i32 0
  %3 = load i64, ptr %tv_sec, align 8
  %tv_usec = getelementptr inbounds %struct.timeval, ptr %_now, i32 0, i32 1
  %4 = load i64, ptr %tv_usec, align 8
  %5 = load ptr, ptr %bs.addr, align 8
  %6 = load i64, ptr %offset.addr, align 8
  %7 = load i64, ptr %bytes.addr, align 8
  %8 = load i32, ptr %flags.addr, align 4
  call void (ptr, ...) @qemu_log(ptr noundef @.str.80, i32 noundef %call10, i64 noundef %3, i64 noundef %4, ptr noundef %5, i64 noundef %6, i64 noundef %7, i32 noundef %8)
  br label %if.end

if.else:                                          ; preds = %if.then
  %9 = load ptr, ptr %bs.addr, align 8
  %10 = load i64, ptr %offset.addr, align 8
  %11 = load i64, ptr %bytes.addr, align 8
  %12 = load i32, ptr %flags.addr, align 4
  call void (ptr, ...) @qemu_log(ptr noundef @.str.81, ptr noundef %9, i64 noundef %10, i64 noundef %11, i32 noundef %12)
  br label %if.end

if.end:                                           ; preds = %if.else, %if.then8
  br label %if.end11

if.end11:                                         ; preds = %if.end, %land.lhs.true5, %land.lhs.true, %entry
  ret void
}

; Function Attrs: nounwind sspstrong uwtable
define dso_local i32 @bdrv_co_pwritev(ptr noundef %child, i64 noundef %offset, i64 noundef %bytes, ptr noundef %qiov, i32 noundef %flags) #0 {
entry:
  %child.addr = alloca ptr, align 8
  %offset.addr = alloca i64, align 8
  %bytes.addr = alloca i64, align 8
  %qiov.addr = alloca ptr, align 8
  %flags.addr = alloca i32, align 4
  store ptr %child, ptr %child.addr, align 8
  store i64 %offset, ptr %offset.addr, align 8
  store i64 %bytes, ptr %bytes.addr, align 8
  store ptr %qiov, ptr %qiov.addr, align 8
  store i32 %flags, ptr %flags.addr, align 4
  br label %do.body

do.body:                                          ; preds = %entry
  br label %do.end

do.end:                                           ; preds = %do.body
  %0 = load ptr, ptr %child.addr, align 8
  %1 = load i64, ptr %offset.addr, align 8
  %2 = load i64, ptr %bytes.addr, align 8
  %3 = load ptr, ptr %qiov.addr, align 8
  %4 = load i32, ptr %flags.addr, align 4
  %call = call i32 @bdrv_co_pwritev_part(ptr noundef %0, i64 noundef %1, i64 noundef %2, ptr noundef %3, i64 noundef 0, i32 noundef %4)
  ret i32 %call
}

; Function Attrs: nounwind sspstrong uwtable
define internal void @trace_bdrv_co_pwrite_zeroes(ptr noundef %bs, i64 noundef %offset, i64 noundef %bytes, i32 noundef %flags) #0 {
entry:
  %bs.addr = alloca ptr, align 8
  %offset.addr = alloca i64, align 8
  %bytes.addr = alloca i64, align 8
  %flags.addr = alloca i32, align 4
  store ptr %bs, ptr %bs.addr, align 8
  store i64 %offset, ptr %offset.addr, align 8
  store i64 %bytes, ptr %bytes.addr, align 8
  store i32 %flags, ptr %flags.addr, align 4
  %0 = load ptr, ptr %bs.addr, align 8
  %1 = load i64, ptr %offset.addr, align 8
  %2 = load i64, ptr %bytes.addr, align 8
  %3 = load i32, ptr %flags.addr, align 4
  call void @_nocheck__trace_bdrv_co_pwrite_zeroes(ptr noundef %0, i64 noundef %1, i64 noundef %2, i32 noundef %3)
  ret void
}

; Function Attrs: nounwind sspstrong uwtable
define dso_local i32 @bdrv_co_pwrite_zeroes(ptr noundef %child, i64 noundef %offset, i64 noundef %bytes, i32 noundef %flags) #0 {
entry:
  %child.addr = alloca ptr, align 8
  %offset.addr = alloca i64, align 8
  %bytes.addr = alloca i64, align 8
  %flags.addr = alloca i32, align 4
  store ptr %child, ptr %child.addr, align 8
  store i64 %offset, ptr %offset.addr, align 8
  store i64 %bytes, ptr %bytes.addr, align 8
  store i32 %flags, ptr %flags.addr, align 4
  br label %do.body

do.body:                                          ; preds = %entry
  br label %do.end

do.end:                                           ; preds = %do.body
  %0 = load ptr, ptr %child.addr, align 8
  %bs = getelementptr inbounds %struct.BdrvChild, ptr %0, i32 0, i32 0
  %1 = load ptr, ptr %bs, align 8
  %2 = load i64, ptr %offset.addr, align 8
  %3 = load i64, ptr %bytes.addr, align 8
  %4 = load i32, ptr %flags.addr, align 4
  call void @trace_bdrv_co_pwrite_zeroes(ptr noundef %1, i64 noundef %2, i64 noundef %3, i32 noundef %4)
  call void @assert_bdrv_graph_readable()
  %5 = load ptr, ptr %child.addr, align 8
  %bs1 = getelementptr inbounds %struct.BdrvChild, ptr %5, i32 0, i32 0
  %6 = load ptr, ptr %bs1, align 8
  %open_flags = getelementptr inbounds %struct.BlockDriverState, ptr %6, i32 0, i32 0
  %7 = load i32, ptr %open_flags, align 8
  %and = and i32 %7, 16384
  %tobool = icmp ne i32 %and, 0
  br i1 %tobool, label %if.end, label %if.then

if.then:                                          ; preds = %do.end
  %8 = load i32, ptr %flags.addr, align 4
  %and2 = and i32 %8, -5
  store i32 %and2, ptr %flags.addr, align 4
  br label %if.end

if.end:                                           ; preds = %if.then, %do.end
  %9 = load ptr, ptr %child.addr, align 8
  %10 = load i64, ptr %offset.addr, align 8
  %11 = load i64, ptr %bytes.addr, align 8
  %12 = load i32, ptr %flags.addr, align 4
  %or = or i32 2, %12
  %call = call i32 @bdrv_co_pwritev(ptr noundef %9, i64 noundef %10, i64 noundef %11, ptr noundef null, i32 noundef %or)
  ret i32 %call
}