; Function Attrs: nounwind sspstrong uwtable
define dso_local range(i32 -2147483648, 1) i32 @bdrv_co_pwrite_zeroes(ptr noundef readonly captures(none) %child, i64 noundef %offset, i64 noundef %bytes, i32 noundef %flags) #0 {
entry:
  %_now.i.i = alloca %struct.timeval, align 8
  %0 = load ptr, ptr %child, align 8
  call void @llvm.lifetime.start.p0(i64 16, ptr nonnull %_now.i.i)
  %1 = load i32, ptr @trace_events_enabled_count, align 4
  %tobool.i.i = icmp ne i32 %1, 0
  %2 = load i16, ptr @_TRACE_BDRV_CO_PWRITE_ZEROES_DSTATE, align 2
  %tobool4.i.i = icmp ne i16 %2, 0
  %or.cond.i.i = select i1 %tobool.i.i, i1 %tobool4.i.i, i1 false
  br i1 %or.cond.i.i, label %land.lhs.true5.i.i, label %trace_bdrv_co_pwrite_zeroes.exit

land.lhs.true5.i.i:                               ; preds = %entry
  %3 = load i32, ptr @qemu_loglevel, align 4
  %and.i.i.i = and i32 %3, 32768
  %cmp.i.not.i.i = icmp eq i32 %and.i.i.i, 0
  br i1 %cmp.i.not.i.i, label %trace_bdrv_co_pwrite_zeroes.exit, label %if.then.i.i

if.then.i.i:                                      ; preds = %land.lhs.true5.i.i
  %4 = load i8, ptr @message_with_timestamp, align 1
  %tobool7.i.i = trunc i8 %4 to i1
  br i1 %tobool7.i.i, label %if.then8.i.i, label %if.else.i.i

if.then8.i.i:                                     ; preds = %if.then.i.i
  %call9.i.i = call i32 @gettimeofday(ptr noundef nonnull %_now.i.i, ptr noundef null) #15
  %call10.i.i = tail call i32 @qemu_get_thread_id() #15
  %5 = load i64, ptr %_now.i.i, align 8
  %tv_usec.i.i = getelementptr inbounds nuw i8, ptr %_now.i.i, i64 8
  %6 = load i64, ptr %tv_usec.i.i, align 8
  tail call void (ptr, ...) @qemu_log(ptr noundef nonnull @.str.80, i32 noundef %call10.i.i, i64 noundef %5, i64 noundef %6, ptr noundef %0, i64 noundef %offset, i64 noundef %bytes, i32 noundef %flags) #15
  br label %trace_bdrv_co_pwrite_zeroes.exit

if.else.i.i:                                      ; preds = %if.then.i.i
  tail call void (ptr, ...) @qemu_log(ptr noundef nonnull @.str.81, ptr noundef %0, i64 noundef %offset, i64 noundef %bytes, i32 noundef %flags) #15
  br label %trace_bdrv_co_pwrite_zeroes.exit

trace_bdrv_co_pwrite_zeroes.exit:                 ; preds = %entry, %land.lhs.true5.i.i, %if.then8.i.i, %if.else.i.i
  call void @llvm.lifetime.end.p0(i64 16, ptr nonnull %_now.i.i)
  tail call void @assert_bdrv_graph_readable() #15
  %7 = load ptr, ptr %child, align 8
  %8 = load i32, ptr %7, align 8
  %and = and i32 %8, 16384
  %tobool.not = icmp eq i32 %and, 0
  %and2 = and i32 %flags, -7
  %spec.select = select i1 %tobool.not, i32 %and2, i32 %flags
  %or = or i32 %spec.select, 2
  %call.i = tail call range(i32 -2147483648, 1) i32 @bdrv_co_pwritev_part(ptr noundef nonnull readonly %child, i64 noundef %offset, i64 noundef %bytes, ptr noundef null, i64 noundef 0, i32 noundef %or)
  ret i32 %call.i
}